; Function Attrs: nounwind uwtable
define hidden ptr @PyCMethod_GetClass(ptr noundef readonly captures(none) %0) local_unnamed_addr #0 {
  %2 = getelementptr i8, ptr %0, i64 8
  %.val = load ptr, ptr %2, align 8, !tbaa !113
  %.not.i = icmp eq ptr %.val, @PyCFunction_Type
  br i1 %.not.i, label %PyObject_TypeCheck.exit.thread, label %PyObject_TypeCheck.exit

PyObject_TypeCheck.exit:                          ; preds = %1
  %3 = tail call i32 @PyType_IsSubtype(ptr noundef %.val, ptr noundef nonnull @PyCFunction_Type) #5
  %.not5 = icmp eq i32 %3, 0
  br i1 %.not5, label %4, label %PyObject_TypeCheck.exit.thread

4:                                                ; preds = %PyObject_TypeCheck.exit
  tail call void @_PyErr_BadInternalCall(ptr noundef nonnull @.str.3, i32 noundef 150) #5
  br label %PyCFunction_GET_CLASS.exit

PyObject_TypeCheck.exit.thread:                   ; preds = %1, %PyObject_TypeCheck.exit
  %5 = getelementptr inbounds nuw i8, ptr %0, i64 16
  %6 = load ptr, ptr %5, align 8, !tbaa !22
  %7 = getelementptr inbounds nuw i8, ptr %6, i64 16
  %8 = load i32, ptr %7, align 8, !tbaa !4
  %9 = and i32 %8, 512
  %.not.i3 = icmp eq i32 %9, 0
  br i1 %.not.i3, label %PyCFunction_GET_CLASS.exit, label %10

10:                                               ; preds = %PyObject_TypeCheck.exit.thread
  %11 = getelementptr inbounds nuw i8, ptr %0, i64 56
  %12 = load ptr, ptr %11, align 8, !tbaa !15
  br label %PyCFunction_GET_CLASS.exit

PyCFunction_GET_CLASS.exit:                       ; preds = %10, %PyObject_TypeCheck.exit.thread, %4
  %.0 = phi ptr [ null, %4 ], [ %12, %10 ], [ null, %PyObject_TypeCheck.exit.thread ]
  ret ptr %.0
}